; Function Attrs: mustprogress nounwind uwtable
define dso_local noundef i32 @_ZN4node19TraceSigintWatchdog12HandleSigintEv(ptr noundef nonnull align 8 dereferenceable(236) %this) unnamed_addr #3 align 2 {
entry:
  %handle_ = getelementptr inbounds i8, ptr %this, i64 104
  %call = tail call i32 @uv_async_send(ptr noundef nonnull %handle_) #15
  %cmp.not = icmp eq i32 %call, 0
  br i1 %cmp.not, label %do.end5, label %do.body4

do.body4:                                         ; preds = %entry
  tail call void @_ZN4node6AssertERKNS_13AssertionInfoE(ptr noundef nonnull align 8 dereferenceable(24) @_ZZN4node19TraceSigintWatchdog12HandleSigintEvE4args) #15
  tail call void @abort() #16
  unreachable

do.end5:                                          ; preds = %entry
  %realm_.i = getelementptr inbounds i8, ptr %this, i64 16
  %0 = load ptr, ptr %realm_.i, align 8
  %env_.i.i = getelementptr inbounds i8, ptr %0, i64 176
  %1 = load ptr, ptr %env_.i.i, align 8
  %isolate_.i = getelementptr inbounds i8, ptr %1, i64 88
  %2 = load ptr, ptr %isolate_.i, align 8
  tail call void @_ZN2v87Isolate16RequestInterruptEPFvPS0_PvES2_(ptr noundef nonnull align 1 dereferenceable(1) %2, ptr noundef nonnull @"_ZZN4node19TraceSigintWatchdog12HandleSigintEvEN3$_08__invokeEPN2v87IsolateEPv", ptr noundef nonnull %this) #15
  ret i32 0
}